; Function Attrs: nounwind uwtable
define noalias noundef ptr @Rtm_ManAlloc(ptr noundef readonly captures(none) %0) local_unnamed_addr #2 {
  %calloc = tail call dereferenceable_or_null(48) ptr @calloc(i64 1, i64 48)
  %2 = getelementptr i8, ptr %0, i64 32
  %.val = load ptr, ptr %2, align 8, !tbaa !3
  %3 = getelementptr i8, ptr %0, i64 156
  %.val9 = load i32, ptr %3, align 4, !tbaa !21
  %4 = getelementptr i8, ptr %.val, i64 4
  %.val.val = load i32, ptr %4, align 4, !tbaa !22
  %5 = sub nsw i32 %.val.val, %.val9
  %6 = tail call noalias dereferenceable_or_null(16) ptr @malloc(i64 noundef 16) #22
  %7 = add i32 %5, -1
  %or.cond.i = icmp ult i32 %7, 7
  %spec.store.select.i = select i1 %or.cond.i, i32 8, i32 %5
  %8 = getelementptr inbounds nuw i8, ptr %6, i64 4
  store i32 0, ptr %8, align 4, !tbaa !22
  store i32 %spec.store.select.i, ptr %6, align 8, !tbaa !24
  %.not.i = icmp eq i32 %spec.store.select.i, 0
  br i1 %.not.i, label %Vec_PtrAlloc.exit, label %9

9:                                                ; preds = %1
  %10 = sext i32 %spec.store.select.i to i64
  %11 = shl nsw i64 %10, 3
  %12 = tail call noalias ptr @malloc(i64 noundef %11) #22
  br label %Vec_PtrAlloc.exit

Vec_PtrAlloc.exit:                                ; preds = %1, %9
  %13 = phi ptr [ %12, %9 ], [ null, %1 ]
  %14 = getelementptr inbounds nuw i8, ptr %6, i64 8
  store ptr %13, ptr %14, align 8, !tbaa !25
  store ptr %6, ptr %calloc, align 8, !tbaa !26
  %15 = getelementptr i8, ptr %0, i64 136
  %.val10 = load i32, ptr %15, align 8, !tbaa !29
  %16 = tail call noalias dereferenceable_or_null(16) ptr @malloc(i64 noundef 16) #22
  %17 = add i32 %.val10, -1
  %or.cond.i12 = icmp ult i32 %17, 7
  %spec.store.select.i13 = select i1 %or.cond.i12, i32 8, i32 %.val10
  %18 = getelementptr inbounds nuw i8, ptr %16, i64 4
  store i32 0, ptr %18, align 4, !tbaa !22
  store i32 %spec.store.select.i13, ptr %16, align 8, !tbaa !24
  %.not.i14 = icmp eq i32 %spec.store.select.i13, 0
  br i1 %.not.i14, label %Vec_PtrAlloc.exit15, label %19

19:                                               ; preds = %Vec_PtrAlloc.exit
  %20 = sext i32 %spec.store.select.i13 to i64
  %21 = shl nsw i64 %20, 3
  %22 = tail call noalias ptr @malloc(i64 noundef %21) #22
  br label %Vec_PtrAlloc.exit15

Vec_PtrAlloc.exit15:                              ; preds = %Vec_PtrAlloc.exit, %19
  %23 = phi ptr [ %22, %19 ], [ null, %Vec_PtrAlloc.exit ]
  %24 = getelementptr inbounds nuw i8, ptr %16, i64 8
  store ptr %23, ptr %24, align 8, !tbaa !25
  %25 = getelementptr inbounds nuw i8, ptr %calloc, i64 8
  store ptr %16, ptr %25, align 8, !tbaa !30
  %26 = getelementptr i8, ptr %0, i64 140
  %.val11 = load i32, ptr %26, align 4, !tbaa !29
  %27 = tail call noalias dereferenceable_or_null(16) ptr @malloc(i64 noundef 16) #22
  %28 = add i32 %.val11, -1
  %or.cond.i16 = icmp ult i32 %28, 7
  %spec.store.select.i17 = select i1 %or.cond.i16, i32 8, i32 %.val11
  %29 = getelementptr inbounds nuw i8, ptr %27, i64 4
  store i32 0, ptr %29, align 4, !tbaa !22
  store i32 %spec.store.select.i17, ptr %27, align 8, !tbaa !24
  %.not.i18 = icmp eq i32 %spec.store.select.i17, 0
  br i1 %.not.i18, label %Vec_PtrAlloc.exit19, label %30

30:                                               ; preds = %Vec_PtrAlloc.exit15
  %31 = sext i32 %spec.store.select.i17 to i64
  %32 = shl nsw i64 %31, 3
  %33 = tail call noalias ptr @malloc(i64 noundef %32) #22
  br label %Vec_PtrAlloc.exit19

Vec_PtrAlloc.exit19:                              ; preds = %Vec_PtrAlloc.exit15, %30
  %34 = phi ptr [ %33, %30 ], [ null, %Vec_PtrAlloc.exit15 ]
  %35 = getelementptr inbounds nuw i8, ptr %27, i64 8
  store ptr %34, ptr %35, align 8, !tbaa !25
  %36 = getelementptr inbounds nuw i8, ptr %calloc, i64 16
  store ptr %27, ptr %36, align 8, !tbaa !31
  %37 = tail call ptr (...) @Aig_MmFlexStart() #23
  %38 = getelementptr inbounds nuw i8, ptr %calloc, i64 24
  store ptr %37, ptr %38, align 8, !tbaa !32
  ret ptr %calloc
}